target datalayout = "e-m:e-p270:32:32-p271:32:32-p272:64:64-i64:64-i128:128-f80:128-n8:16:32:64-S128"
target triple = "x86_64-pc-linux-gnu"

%struct.stat = type { i64, i64, i64, i32, i32, i32, i32, i64, i64, i64, i64, %struct.timespec, %struct.timespec, %struct.timespec, [3 x i64] }
%struct.timespec = type { i64, i64 }

@FLAC__Metadata_ChainStatusString = external constant [0 x ptr], align 8

; Function Attrs: nounwind sspstrong uwtable
define internal void @set_file_stats_(ptr noundef %0, ptr noundef %1) #0 {
  %3 = alloca ptr, align 8
  %4 = alloca ptr, align 8
  store ptr %0, ptr %3, align 8, !tbaa !28
  store ptr %1, ptr %4, align 8, !tbaa !64
  %5 = load ptr, ptr %3, align 8, !tbaa !28
  %6 = load ptr, ptr %4, align 8, !tbaa !64
  %7 = getelementptr inbounds nuw %struct.stat, ptr %6, i32 0, i32 3
  %8 = load i32, ptr %7, align 8, !tbaa !66
  %9 = call i32 @chmod(ptr noundef %5, i32 noundef %8) #8
  ret void
}

; Function Attrs: nounwind sspstrong uwtable
define internal i32 @get_file_stats_(ptr noundef %0, ptr noundef %1) #0 {
  %3 = alloca ptr, align 8
  %4 = alloca ptr, align 8
  store ptr %0, ptr %3, align 8, !tbaa !28
  store ptr %1, ptr %4, align 8, !tbaa !64
  %5 = load ptr, ptr %3, align 8, !tbaa !28
  %6 = load ptr, ptr %4, align 8, !tbaa !64
  %7 = call i32 @stat64(ptr noundef %5, ptr noundef %6) #8
  %8 = icmp eq i32 0, %7
  %9 = zext i1 %8 to i32
  ret i32 %9
}

; Function Attrs: nounwind sspstrong uwtable
define internal ptr @store_to_file_post_(ptr noundef %0, ptr noundef %1, i32 noundef %2) #0 {
  %4 = alloca ptr, align 8
  %5 = alloca ptr, align 8
  %6 = alloca ptr, align 8
  %7 = alloca i32, align 4
  %8 = alloca %struct.stat, align 8
  %9 = alloca i32, align 4
  %10 = alloca ptr, align 8
  %11 = alloca i32, align 4
  store ptr %0, ptr %5, align 8, !tbaa !28
  store ptr %1, ptr %6, align 8, !tbaa !52
  store i32 %2, ptr %7, align 4, !tbaa !4
  call void @llvm.lifetime.start.p0(i64 144, ptr %8) #8
  call void @llvm.lifetime.start.p0(i64 4, ptr %9) #8
  %12 = load ptr, ptr %5, align 8, !tbaa !28
  %13 = call i32 @get_file_stats_(ptr noundef %12, ptr noundef %8)
  store i32 %13, ptr %9, align 4, !tbaa !4
  %14 = load ptr, ptr %5, align 8, !tbaa !28
  %15 = call i32 @grabbag__file_change_stats(ptr noundef %14, i32 noundef 0)
  %16 = load ptr, ptr %6, align 8, !tbaa !52
  call void @FLAC__metadata_chain_sort_padding(ptr noundef %16)
  %17 = load ptr, ptr %6, align 8, !tbaa !52
  %18 = load i32, ptr %7, align 4, !tbaa !4
  %19 = call i32 @FLAC__metadata_chain_write(ptr noundef %17, i32 noundef 1, i32 noundef %18)
  %20 = icmp ne i32 %19, 0
  br i1 %20, label %29, label %21

21:                                               ; preds = %3
  call void @llvm.lifetime.start.p0(i64 8, ptr %10) #8
  %22 = load ptr, ptr %6, align 8, !tbaa !52
  %23 = call i32 @FLAC__metadata_chain_status(ptr noundef %22)
  %24 = zext i32 %23 to i64
  %25 = getelementptr inbounds nuw [0 x ptr], ptr @FLAC__Metadata_ChainStatusString, i64 0, i64 %24
  %26 = load ptr, ptr %25, align 8, !tbaa !28
  store ptr %26, ptr %10, align 8, !tbaa !28
  %27 = load ptr, ptr %6, align 8, !tbaa !52
  call void @FLAC__metadata_chain_delete(ptr noundef %27)
  %28 = load ptr, ptr %10, align 8, !tbaa !28
  store ptr %28, ptr %4, align 8
  store i32 1, ptr %11, align 4
  call void @llvm.lifetime.end.p0(i64 8, ptr %10) #8
  br label %36

29:                                               ; preds = %3
  %30 = load ptr, ptr %6, align 8, !tbaa !52
  call void @FLAC__metadata_chain_delete(ptr noundef %30)
  %31 = load i32, ptr %9, align 4, !tbaa !4
  %32 = icmp ne i32 %31, 0
  br i1 %32, label %33, label %35

33:                                               ; preds = %29
  %34 = load ptr, ptr %5, align 8, !tbaa !28
  call void @set_file_stats_(ptr noundef %34, ptr noundef %8)
  br label %35

35:                                               ; preds = %33, %29
  store ptr null, ptr %4, align 8
  store i32 1, ptr %11, align 4
  br label %36

36:                                               ; preds = %35, %21
  call void @llvm.lifetime.end.p0(i64 4, ptr %9) #8
  call void @llvm.lifetime.end.p0(i64 144, ptr %8) #8
  %37 = load ptr, ptr %4, align 8
  ret ptr %37
}