; Function Attrs: nounwind sspstrong uwtable
define internal fastcc ptr @store_to_file_post_(ptr noundef %0, ptr noundef %1, i32 noundef %2) unnamed_addr #0 {
  %4 = alloca %struct.stat, align 8
  call void @llvm.lifetime.start.p0(i64 144, ptr nonnull %4) #14
  %5 = call i32 @stat64(ptr noundef readonly %0, ptr noundef nonnull %4) #14
  %6 = tail call i32 @grabbag__file_change_stats(ptr noundef %0, i32 noundef 0) #14
  tail call void @FLAC__metadata_chain_sort_padding(ptr noundef %1) #14
  %7 = tail call i32 @FLAC__metadata_chain_write(ptr noundef %1, i32 noundef 1, i32 noundef %2) #14
  %.not = icmp eq i32 %7, 0
  br i1 %.not, label %8, label %13

8:                                                ; preds = %3
  %9 = tail call i32 @FLAC__metadata_chain_status(ptr noundef %1) #14
  %10 = zext i32 %9 to i64
  %11 = getelementptr inbounds nuw [0 x ptr], ptr @FLAC__Metadata_ChainStatusString, i64 0, i64 %10
  %12 = load ptr, ptr %11, align 8, !tbaa !44
  tail call void @FLAC__metadata_chain_delete(ptr noundef %1) #14
  br label %17

13:                                               ; preds = %3
  %.not12 = icmp eq i32 %5, 0
  tail call void @FLAC__metadata_chain_delete(ptr noundef %1) #14
  br i1 %.not12, label %14, label %17

14:                                               ; preds = %13
  %15 = getelementptr inbounds nuw i8, ptr %4, i64 24
  %.val = load i32, ptr %15, align 8, !tbaa !48
  %16 = tail call i32 @chmod(ptr noundef readonly %0, i32 noundef %.val) #14
  br label %17

17:                                               ; preds = %13, %14, %8
  %.0 = phi ptr [ %12, %8 ], [ null, %14 ], [ null, %13 ]
  call void @llvm.lifetime.end.p0(i64 144, ptr nonnull %4) #14
  ret ptr %.0
}